target datalayout = "e-m:e-p270:32:32-p271:32:32-p272:64:64-i64:64-i128:128-f80:128-n8:16:32:64-S128"
target triple = "x86_64-pc-linux-gnu"

; Function Attrs: mustprogress nounwind uwtable
define signext i8 @uprv_asciitolower_77(i8 noundef signext %0) #0 {
  %2 = alloca i8, align 1
  store i8 %0, ptr %2, align 1, !tbaa !3
  %3 = load i8, ptr %2, align 1, !tbaa !3
  %4 = sext i8 %3 to i32
  %5 = icmp sle i32 65, %4
  br i1 %5, label %6, label %15

6:                                                ; preds = %1
  %7 = load i8, ptr %2, align 1, !tbaa !3
  %8 = sext i8 %7 to i32
  %9 = icmp sle i32 %8, 90
  br i1 %9, label %10, label %15

10:                                               ; preds = %6
  %11 = load i8, ptr %2, align 1, !tbaa !3
  %12 = sext i8 %11 to i32
  %13 = add nsw i32 %12, 32
  %14 = trunc i32 %13 to i8
  store i8 %14, ptr %2, align 1, !tbaa !3
  br label %15

15:                                               ; preds = %10, %6, %1
  %16 = load i8, ptr %2, align 1, !tbaa !3
  ret i8 %16
}

; Function Attrs: mustprogress nounwind uwtable
define i32 @uprv_stricmp_77(ptr noundef %0, ptr noundef %1) #0 {
  %3 = alloca i32, align 4
  %4 = alloca ptr, align 8
  %5 = alloca ptr, align 8
  %6 = alloca i32, align 4
  %7 = alloca i8, align 1
  %8 = alloca i8, align 1
  %9 = alloca i32, align 4
  store ptr %0, ptr %4, align 8, !tbaa !6
  store ptr %1, ptr %5, align 8, !tbaa !6
  %10 = load ptr, ptr %4, align 8, !tbaa !6
  %11 = icmp eq ptr %10, null
  br i1 %11, label %12, label %17

12:                                               ; preds = %2
  %13 = load ptr, ptr %5, align 8, !tbaa !6
  %14 = icmp eq ptr %13, null
  br i1 %14, label %15, label %16

15:                                               ; preds = %12
  store i32 0, ptr %3, align 4
  br label %61

16:                                               ; preds = %12
  store i32 -1, ptr %3, align 4
  br label %61

17:                                               ; preds = %2
  %18 = load ptr, ptr %5, align 8, !tbaa !6
  %19 = icmp eq ptr %18, null
  br i1 %19, label %20, label %21

20:                                               ; preds = %17
  store i32 1, ptr %3, align 4
  br label %61

21:                                               ; preds = %17
  call void @llvm.lifetime.start.p0(i64 4, ptr %6) #7
  call void @llvm.lifetime.start.p0(i64 1, ptr %7) #7
  call void @llvm.lifetime.start.p0(i64 1, ptr %8) #7
  br label %22

22:                                               ; preds = %55, %21
  %23 = load ptr, ptr %4, align 8, !tbaa !6
  %24 = load i8, ptr %23, align 1, !tbaa !3
  store i8 %24, ptr %7, align 1, !tbaa !3
  %25 = load ptr, ptr %5, align 8, !tbaa !6
  %26 = load i8, ptr %25, align 1, !tbaa !3
  store i8 %26, ptr %8, align 1, !tbaa !3
  %27 = load i8, ptr %7, align 1, !tbaa !3
  %28 = zext i8 %27 to i32
  %29 = icmp eq i32 %28, 0
  br i1 %29, label %30, label %36

30:                                               ; preds = %22
  %31 = load i8, ptr %8, align 1, !tbaa !3
  %32 = zext i8 %31 to i32
  %33 = icmp eq i32 %32, 0
  br i1 %33, label %34, label %35

34:                                               ; preds = %30
  store i32 0, ptr %3, align 4
  store i32 1, ptr %9, align 4
  br label %60

35:                                               ; preds = %30
  store i32 -1, ptr %3, align 4
  store i32 1, ptr %9, align 4
  br label %60

36:                                               ; preds = %22
  %37 = load i8, ptr %8, align 1, !tbaa !3
  %38 = zext i8 %37 to i32
  %39 = icmp eq i32 %38, 0
  br i1 %39, label %40, label %41

40:                                               ; preds = %36
  store i32 1, ptr %3, align 4
  store i32 1, ptr %9, align 4
  br label %60

41:                                               ; preds = %36
  %42 = load i8, ptr %7, align 1, !tbaa !3
  %43 = call signext i8 @uprv_asciitolower_77(i8 noundef signext %42)
  %44 = zext i8 %43 to i32
  %45 = load i8, ptr %8, align 1, !tbaa !3
  %46 = call signext i8 @uprv_asciitolower_77(i8 noundef signext %45)
  %47 = zext i8 %46 to i32
  %48 = sub nsw i32 %44, %47
  store i32 %48, ptr %6, align 4, !tbaa !12
  %49 = load i32, ptr %6, align 4, !tbaa !12
  %50 = icmp ne i32 %49, 0
  br i1 %50, label %51, label %53

51:                                               ; preds = %41
  %52 = load i32, ptr %6, align 4, !tbaa !12
  store i32 %52, ptr %3, align 4
  store i32 1, ptr %9, align 4
  br label %60

53:                                               ; preds = %41
  br label %54

54:                                               ; preds = %53
  br label %55

55:                                               ; preds = %54
  %56 = load ptr, ptr %4, align 8, !tbaa !6
  %57 = getelementptr inbounds nuw i8, ptr %56, i32 1
  store ptr %57, ptr %4, align 8, !tbaa !6
  %58 = load ptr, ptr %5, align 8, !tbaa !6
  %59 = getelementptr inbounds nuw i8, ptr %58, i32 1
  store ptr %59, ptr %5, align 8, !tbaa !6
  br label %22, !llvm.loop !18

60:                                               ; preds = %51, %40, %35, %34
  call void @llvm.lifetime.end.p0(i64 1, ptr %8) #7
  call void @llvm.lifetime.end.p0(i64 1, ptr %7) #7
  call void @llvm.lifetime.end.p0(i64 4, ptr %6) #7
  br label %61

61:                                               ; preds = %60, %20, %16, %15
  %62 = load i32, ptr %3, align 4
  ret i32 %62
}