; Function Attrs: mustprogress nofree norecurse nosync nounwind willreturn memory(argmem: read) uwtable
define range(i32 -254, 255) i32 @uprv_stricmp_77(ptr noundef readonly %0, ptr noundef readonly %1) local_unnamed_addr #7 {
  %3 = icmp eq ptr %0, null
  br i1 %3, label %4, label %6

4:                                                ; preds = %2
  %5 = icmp ne ptr %1, null
  %. = sext i1 %5 to i32
  br label %.loopexit

6:                                                ; preds = %2
  %7 = icmp eq ptr %1, null
  br i1 %7, label %.loopexit, label %.preheader

.preheader:                                       ; preds = %6
  %8 = load i8, ptr %0, align 1, !tbaa !3
  %9 = load i8, ptr %1, align 1, !tbaa !3
  %10 = icmp eq i8 %8, 0
  br i1 %10, label %._crit_edge, label %.lr.ph

._crit_edge:                                      ; preds = %23, %.preheader
  %.lcssa = phi i8 [ %9, %.preheader ], [ %27, %23 ]
  %11 = icmp ne i8 %.lcssa, 0
  %.19 = sext i1 %11 to i32
  br label %.loopexit

.lr.ph:                                           ; preds = %.preheader, %23
  %12 = phi i8 [ %27, %23 ], [ %9, %.preheader ]
  %13 = phi i8 [ %26, %23 ], [ %8, %.preheader ]
  %.01424 = phi ptr [ %24, %23 ], [ %0, %.preheader ]
  %.01523 = phi ptr [ %25, %23 ], [ %1, %.preheader ]
  %14 = icmp eq i8 %12, 0
  br i1 %14, label %.loopexit, label %15

15:                                               ; preds = %.lr.ph
  %16 = add i8 %13, -65
  %or.cond.i = icmp ult i8 %16, 26
  %17 = or disjoint i8 %13, 32
  %spec.select.i = select i1 %or.cond.i, i8 %17, i8 %13
  %18 = zext i8 %spec.select.i to i32
  %19 = add i8 %12, -65
  %or.cond.i20 = icmp ult i8 %19, 26
  %20 = or disjoint i8 %12, 32
  %spec.select.i21 = select i1 %or.cond.i20, i8 %20, i8 %12
  %21 = zext i8 %spec.select.i21 to i32
  %22 = sub nsw i32 %18, %21
  %.not = icmp eq i32 %22, 0
  br i1 %.not, label %23, label %.loopexit

23:                                               ; preds = %15
  %24 = getelementptr inbounds nuw i8, ptr %.01424, i64 1
  %25 = getelementptr inbounds nuw i8, ptr %.01523, i64 1
  %26 = load i8, ptr %24, align 1, !tbaa !3
  %27 = load i8, ptr %25, align 1, !tbaa !3
  %28 = icmp eq i8 %26, 0
  br i1 %28, label %._crit_edge, label %.lr.ph, !llvm.loop !11

.loopexit:                                        ; preds = %.lr.ph, %15, %._crit_edge, %6, %4
  %.0 = phi i32 [ %., %4 ], [ 1, %6 ], [ %.19, %._crit_edge ], [ %22, %15 ], [ 1, %.lr.ph ]
  ret i32 %.0
}